target datalayout = "e-m:e-p270:32:32-p271:32:32-p272:64:64-i64:64-i128:128-f80:128-n8:16:32:64-S128"
target triple = "x86_64-pc-linux-gnu"

%struct.pcaprec_hdr = type { i32, i32, i32, i32 }
%struct.wtap_rec = type { i32, i32, i32, %struct.nstime_t, i32, %struct.nstime_t, i8, %union.anon, ptr, i8, %struct.Buffer, %struct.Buffer }
%struct.nstime_t = type { i64, i32 }
%union.anon = type { %struct.wtap_packet_header }
%struct.wtap_packet_header = type { i32, i32, i32, i32, %union.wtap_pseudo_header }
%union.wtap_pseudo_header = type { %struct.erf_mc_phdr }
%struct.erf_mc_phdr = type { %struct.erf_phdr, [16 x %struct.erf_ehdr], %union.anon.1 }
%struct.erf_phdr = type { i64, i8, i8, i16, i16, i16 }
%struct.erf_ehdr = type { i64 }
%union.anon.1 = type { i32 }
%struct.Buffer = type { ptr, i64, i64, i64 }
%struct.wtap_dumper = type { ptr, i32, i32, i32, i32, i8, i64, ptr, ptr, ptr, ptr, ptr, ptr, ptr, ptr, ptr, ptr, ptr, ptr, ptr, i32, i32, i32 }

; Function Attrs: null_pointer_is_valid sspstrong uwtable
define internal zeroext i1 @libpcap_dump_write_packet(ptr noundef %0, ptr noundef %1, ptr noundef %2, i64 noundef %3, ptr noundef %4, ptr noundef %5) #0 {
  %7 = alloca i1, align 1
  %8 = alloca ptr, align 8
  %9 = alloca ptr, align 8
  %10 = alloca ptr, align 8
  %11 = alloca i64, align 8
  %12 = alloca ptr, align 8
  %13 = alloca ptr, align 8
  %14 = alloca ptr, align 8
  %15 = alloca i32, align 4
  %16 = alloca i32, align 4
  store ptr %0, ptr %8, align 8
  store ptr %1, ptr %9, align 8
  store ptr %2, ptr %10, align 8
  store i64 %3, ptr %11, align 8
  store ptr %4, ptr %12, align 8
  store ptr %5, ptr %13, align 8
  call void @llvm.lifetime.start.p0(i64 8, ptr %14) #10
  %17 = load ptr, ptr %9, align 8
  %18 = getelementptr inbounds nuw %struct.wtap_rec, ptr %17, i32 0, i32 7
  %19 = getelementptr inbounds nuw %struct.wtap_packet_header, ptr %18, i32 0, i32 4
  store ptr %19, ptr %14, align 8
  call void @llvm.lifetime.start.p0(i64 4, ptr %15) #10
  %20 = load ptr, ptr %8, align 8
  %21 = getelementptr inbounds nuw %struct.wtap_dumper, ptr %20, i32 0, i32 3
  %22 = load i32, ptr %21, align 8
  %23 = load ptr, ptr %14, align 8
  %24 = call i32 @pcap_get_phdr_size(i32 noundef %22, ptr noundef %23)
  store i32 %24, ptr %15, align 4
  %25 = load ptr, ptr %9, align 8
  %26 = getelementptr inbounds nuw %struct.wtap_rec, ptr %25, i32 0, i32 0
  %27 = load i32, ptr %26, align 8
  %28 = icmp ne i32 %27, 0
  br i1 %28, label %29, label %31

29:                                               ; preds = %6
  %30 = load ptr, ptr %13, align 8
  store i32 -24, ptr %30, align 4
  store i1 false, ptr %7, align 1
  store i32 1, ptr %16, align 4
  br label %103

31:                                               ; preds = %6
  %32 = load ptr, ptr %8, align 8
  %33 = getelementptr inbounds nuw %struct.wtap_dumper, ptr %32, i32 0, i32 3
  %34 = load i32, ptr %33, align 8
  %35 = load ptr, ptr %9, align 8
  %36 = getelementptr inbounds nuw %struct.wtap_rec, ptr %35, i32 0, i32 7
  %37 = getelementptr inbounds nuw %struct.wtap_packet_header, ptr %36, i32 0, i32 2
  %38 = load i32, ptr %37, align 8
  %39 = icmp ne i32 %34, %38
  br i1 %39, label %40, label %42

40:                                               ; preds = %31
  %41 = load ptr, ptr %13, align 8
  store i32 -9, ptr %41, align 4
  store i1 false, ptr %7, align 1
  store i32 1, ptr %16, align 4
  br label %103

42:                                               ; preds = %31
  %43 = load ptr, ptr %9, align 8
  %44 = getelementptr inbounds nuw %struct.wtap_rec, ptr %43, i32 0, i32 7
  %45 = getelementptr inbounds nuw %struct.wtap_packet_header, ptr %44, i32 0, i32 0
  %46 = load i32, ptr %45, align 8
  %47 = zext i32 %46 to i64
  %48 = load i32, ptr %15, align 4
  %49 = sext i32 %48 to i64
  %50 = add i64 %47, %49
  %51 = load ptr, ptr %8, align 8
  %52 = getelementptr inbounds nuw %struct.wtap_dumper, ptr %51, i32 0, i32 3
  %53 = load i32, ptr %52, align 8
  %54 = call i32 @wtap_max_snaplen_for_encap(i32 noundef %53)
  %55 = zext i32 %54 to i64
  %56 = icmp ugt i64 %50, %55
  br i1 %56, label %57, label %59

57:                                               ; preds = %42
  %58 = load ptr, ptr %13, align 8
  store i32 -22, ptr %58, align 4
  store i1 false, ptr %7, align 1
  store i32 1, ptr %16, align 4
  br label %103

59:                                               ; preds = %42
  %60 = load ptr, ptr %9, align 8
  %61 = getelementptr inbounds nuw %struct.wtap_rec, ptr %60, i32 0, i32 7
  %62 = getelementptr inbounds nuw %struct.wtap_packet_header, ptr %61, i32 0, i32 0
  %63 = load i32, ptr %62, align 8
  %64 = load i32, ptr %15, align 4
  %65 = add i32 %63, %64
  %66 = load ptr, ptr %10, align 8
  %67 = getelementptr inbounds nuw %struct.pcaprec_hdr, ptr %66, i32 0, i32 2
  store i32 %65, ptr %67, align 4
  %68 = load ptr, ptr %9, align 8
  %69 = getelementptr inbounds nuw %struct.wtap_rec, ptr %68, i32 0, i32 7
  %70 = getelementptr inbounds nuw %struct.wtap_packet_header, ptr %69, i32 0, i32 1
  %71 = load i32, ptr %70, align 4
  %72 = load i32, ptr %15, align 4
  %73 = add i32 %71, %72
  %74 = load ptr, ptr %10, align 8
  %75 = getelementptr inbounds nuw %struct.pcaprec_hdr, ptr %74, i32 0, i32 3
  store i32 %73, ptr %75, align 4
  %76 = load ptr, ptr %8, align 8
  %77 = load ptr, ptr %10, align 8
  %78 = load i64, ptr %11, align 8
  %79 = load ptr, ptr %13, align 8
  %80 = call zeroext i1 @wtap_dump_file_write(ptr noundef %76, ptr noundef %77, i64 noundef %78, ptr noundef %79)
  br i1 %80, label %82, label %81

81:                                               ; preds = %59
  store i1 false, ptr %7, align 1
  store i32 1, ptr %16, align 4
  br label %103

82:                                               ; preds = %59
  %83 = load ptr, ptr %8, align 8
  %84 = load ptr, ptr %8, align 8
  %85 = getelementptr inbounds nuw %struct.wtap_dumper, ptr %84, i32 0, i32 3
  %86 = load i32, ptr %85, align 8
  %87 = load ptr, ptr %14, align 8
  %88 = load ptr, ptr %13, align 8
  %89 = call zeroext i1 @pcap_write_phdr(ptr noundef %83, i32 noundef %86, ptr noundef %87, ptr noundef %88)
  br i1 %89, label %91, label %90

90:                                               ; preds = %82
  store i1 false, ptr %7, align 1
  store i32 1, ptr %16, align 4
  br label %103

91:                                               ; preds = %82
  %92 = load ptr, ptr %8, align 8
  %93 = load ptr, ptr %12, align 8
  %94 = load ptr, ptr %9, align 8
  %95 = getelementptr inbounds nuw %struct.wtap_rec, ptr %94, i32 0, i32 7
  %96 = getelementptr inbounds nuw %struct.wtap_packet_header, ptr %95, i32 0, i32 0
  %97 = load i32, ptr %96, align 8
  %98 = zext i32 %97 to i64
  %99 = load ptr, ptr %13, align 8
  %100 = call zeroext i1 @wtap_dump_file_write(ptr noundef %92, ptr noundef %93, i64 noundef %98, ptr noundef %99)
  br i1 %100, label %102, label %101

101:                                              ; preds = %91
  store i1 false, ptr %7, align 1
  store i32 1, ptr %16, align 4
  br label %103

102:                                              ; preds = %91
  store i1 true, ptr %7, align 1
  store i32 1, ptr %16, align 4
  br label %103

103:                                              ; preds = %102, %101, %90, %81, %57, %40, %29
  call void @llvm.lifetime.end.p0(i64 4, ptr %15) #10
  call void @llvm.lifetime.end.p0(i64 8, ptr %14) #10
  %104 = load i1, ptr %7, align 1
  ret i1 %104
}