; Function Attrs: null_pointer_is_valid sspstrong uwtable
define internal fastcc zeroext i1 @libpcap_dump_write_packet(ptr noundef %0, ptr noundef %1, ptr noundef %2, i64 noundef range(i64 16, 29) %3, ptr noundef %4, ptr noundef %5) unnamed_addr #0 {
  %7 = getelementptr inbounds nuw i8, ptr %1, i64 64
  %8 = getelementptr inbounds nuw i8, ptr %1, i64 80
  %9 = getelementptr inbounds nuw i8, ptr %0, i64 16
  %10 = load i32, ptr %9, align 8
  %11 = tail call i32 @pcap_get_phdr_size(i32 noundef %10, ptr noundef nonnull %8)
  %12 = load i32, ptr %1, align 8
  %.not = icmp eq i32 %12, 0
  br i1 %.not, label %14, label %13

13:                                               ; preds = %6
  store i32 -24, ptr %5, align 4
  br label %44

14:                                               ; preds = %6
  %15 = load i32, ptr %9, align 8
  %16 = getelementptr inbounds nuw i8, ptr %1, i64 72
  %17 = load i32, ptr %16, align 8
  %.not31 = icmp eq i32 %15, %17
  br i1 %.not31, label %19, label %18

18:                                               ; preds = %14
  store i32 -9, ptr %5, align 4
  br label %44

19:                                               ; preds = %14
  %20 = load i32, ptr %7, align 8
  %21 = zext i32 %20 to i64
  %22 = sext i32 %11 to i64
  %23 = add nsw i64 %21, %22
  %24 = tail call i32 @wtap_max_snaplen_for_encap(i32 noundef %15)
  %25 = zext i32 %24 to i64
  %26 = icmp ugt i64 %23, %25
  br i1 %26, label %27, label %28

27:                                               ; preds = %19
  store i32 -22, ptr %5, align 4
  br label %44

28:                                               ; preds = %19
  %29 = load i32, ptr %7, align 8
  %30 = add i32 %29, %11
  %31 = getelementptr inbounds nuw i8, ptr %2, i64 8
  store i32 %30, ptr %31, align 4
  %32 = getelementptr inbounds nuw i8, ptr %1, i64 68
  %33 = load i32, ptr %32, align 4
  %34 = add i32 %33, %11
  %35 = getelementptr inbounds nuw i8, ptr %2, i64 12
  store i32 %34, ptr %35, align 4
  %36 = tail call zeroext i1 @wtap_dump_file_write(ptr noundef %0, ptr noundef %2, i64 noundef %3, ptr noundef %5)
  br i1 %36, label %37, label %44

37:                                               ; preds = %28
  %38 = load i32, ptr %9, align 8
  %39 = tail call zeroext i1 @pcap_write_phdr(ptr noundef %0, i32 noundef %38, ptr noundef nonnull %8, ptr noundef %5)
  br i1 %39, label %40, label %44

40:                                               ; preds = %37
  %41 = load i32, ptr %7, align 8
  %42 = zext i32 %41 to i64
  %43 = tail call zeroext i1 @wtap_dump_file_write(ptr noundef %0, ptr noundef %4, i64 noundef %42, ptr noundef %5)
  br label %44

44:                                               ; preds = %40, %37, %28, %27, %18, %13
  %.0 = phi i1 [ false, %13 ], [ false, %18 ], [ false, %27 ], [ false, %28 ], [ false, %37 ], [ %43, %40 ]
  ret i1 %.0
}